target datalayout = "e-m:e-p270:32:32-p271:32:32-p272:64:64-i64:64-i128:128-f80:128-n8:16:32:64-S128"
target triple = "x86_64-pc-linux-gnu"

%struct.FunctionCallInfoBaseData = type { ptr, ptr, ptr, i32, i8, i16, [0 x %struct.NullableDatum] }
%struct.NullableDatum = type { i64, i8 }
%union.anon = type { double }
%struct.PgStat_StatFuncEntry = type { i64, i64, i64 }

; Function Attrs: inlinehint nounwind uwtable
define internal i64 @Int64GetDatum(i64 noundef %0) #2 {
  %2 = alloca i64, align 8
  store i64 %0, ptr %2, align 8
  %3 = load i64, ptr %2, align 8
  ret i64 %3
}

; Function Attrs: inlinehint nounwind uwtable
define internal i64 @Float8GetDatum(double noundef %0) #2 {
  %2 = alloca double, align 8
  %3 = alloca %union.anon, align 8
  store double %0, ptr %2, align 8
  call void @llvm.lifetime.start.p0(i64 8, ptr %3) #10
  %4 = load double, ptr %2, align 8
  store double %4, ptr %3, align 8
  %5 = load i64, ptr %3, align 8
  %6 = call i64 @Int64GetDatum(i64 noundef %5)
  call void @llvm.lifetime.end.p0(i64 8, ptr %3) #10
  ret i64 %6
}

; Function Attrs: inlinehint nounwind uwtable
define internal i32 @DatumGetObjectId(i64 noundef %0) #2 {
  %2 = alloca i64, align 8
  store i64 %0, ptr %2, align 8
  %3 = load i64, ptr %2, align 8
  %4 = trunc i64 %3 to i32
  ret i32 %4
}

; Function Attrs: nounwind uwtable
define dso_local i64 @pg_stat_get_function_total_time(ptr noundef %0) #0 {
  %2 = alloca i64, align 8
  %3 = alloca ptr, align 8
  %4 = alloca i32, align 4
  %5 = alloca double, align 8
  %6 = alloca ptr, align 8
  %7 = alloca i32, align 4
  store ptr %0, ptr %3, align 8
  call void @llvm.lifetime.start.p0(i64 4, ptr %4) #10
  %8 = load ptr, ptr %3, align 8
  %9 = getelementptr inbounds nuw %struct.FunctionCallInfoBaseData, ptr %8, i32 0, i32 6
  %10 = getelementptr inbounds [0 x %struct.NullableDatum], ptr %9, i64 0, i64 0
  %11 = getelementptr inbounds nuw %struct.NullableDatum, ptr %10, i32 0, i32 0
  %12 = load i64, ptr %11, align 8
  %13 = call i32 @DatumGetObjectId(i64 noundef %12)
  store i32 %13, ptr %4, align 4
  call void @llvm.lifetime.start.p0(i64 8, ptr %5) #10
  call void @llvm.lifetime.start.p0(i64 8, ptr %6) #10
  %14 = load i32, ptr %4, align 4
  %15 = call ptr @pgstat_fetch_stat_funcentry(i32 noundef %14)
  store ptr %15, ptr %6, align 8
  %16 = icmp eq ptr %15, null
  br i1 %16, label %17, label %23

17:                                               ; preds = %1
  br label %18

18:                                               ; preds = %17
  %19 = load ptr, ptr %3, align 8
  %20 = getelementptr inbounds nuw %struct.FunctionCallInfoBaseData, ptr %19, i32 0, i32 4
  store i8 1, ptr %20, align 4
  store i64 0, ptr %2, align 8
  store i32 1, ptr %7, align 4
  br label %31

21:                                               ; No predecessors!
  br label %22

22:                                               ; preds = %21
  br label %23

23:                                               ; preds = %22, %1
  %24 = load ptr, ptr %6, align 8
  %25 = getelementptr inbounds nuw %struct.PgStat_StatFuncEntry, ptr %24, i32 0, i32 1
  %26 = load i64, ptr %25, align 8
  %27 = sitofp i64 %26 to double
  %28 = fdiv double %27, 1.000000e+03
  store double %28, ptr %5, align 8
  %29 = load double, ptr %5, align 8
  %30 = call i64 @Float8GetDatum(double noundef %29)
  store i64 %30, ptr %2, align 8
  store i32 1, ptr %7, align 4
  br label %31

31:                                               ; preds = %23, %18
  call void @llvm.lifetime.end.p0(i64 8, ptr %6) #10
  call void @llvm.lifetime.end.p0(i64 8, ptr %5) #10
  call void @llvm.lifetime.end.p0(i64 4, ptr %4) #10
  %32 = load i64, ptr %2, align 8
  ret i64 %32
}