; Function Attrs: nounwind uwtable
define dso_local i64 @pg_stat_get_function_total_time(ptr noundef captures(none) %0) local_unnamed_addr #0 {
  %2 = getelementptr inbounds nuw i8, ptr %0, i64 32
  %3 = load i64, ptr %2, align 8
  %4 = trunc i64 %3 to i32
  %5 = tail call ptr @pgstat_fetch_stat_funcentry(i32 noundef %4) #9
  %6 = icmp eq ptr %5, null
  br i1 %6, label %7, label %9

7:                                                ; preds = %1
  %8 = getelementptr inbounds nuw i8, ptr %0, i64 28
  store i8 1, ptr %8, align 4
  br label %15

9:                                                ; preds = %1
  %10 = getelementptr inbounds nuw i8, ptr %5, i64 8
  %11 = load i64, ptr %10, align 8
  %12 = sitofp i64 %11 to double
  %13 = fdiv double %12, 1.000000e+03
  %14 = bitcast double %13 to i64
  br label %15

15:                                               ; preds = %9, %7
  %.0 = phi i64 [ 0, %7 ], [ %14, %9 ]
  ret i64 %.0
}